ARM GAS  C:\Users\nicol\AppData\Local\Temp\ccmr33tk.s 			page 1


   1              		.syntax unified
   2              		.cpu cortex-m3
   3              		.fpu softvfp
   4              		.eabi_attribute 20, 1
   5              		.eabi_attribute 21, 1
   6              		.eabi_attribute 23, 3
   7              		.eabi_attribute 24, 1
   8              		.eabi_attribute 25, 1
   9              		.eabi_attribute 26, 1
  10              		.eabi_attribute 30, 1
  11              		.eabi_attribute 34, 1
  12              		.eabi_attribute 18, 4
  13              		.thumb
  14              		.syntax unified
  15              		.file	"L298N.c"
  16              		.text
  17              	.Ltext0:
  18              		.cfi_sections	.debug_frame
  19              		.section	.text.L298N_Init,"ax",%progbits
  20              		.align	2
  21              		.global	L298N_Init
  22              		.thumb
  23              		.thumb_func
  24              		.type	L298N_Init, %function
  25              	L298N_Init:
  26              	.LFB63:
  27              		.file 1 "L298N.c"
   1:L298N.c       **** #include "L298N.h"
   2:L298N.c       **** #include "project.h"
   3:L298N.c       **** 
   4:L298N.c       **** uint8_t pwm_value;
   5:L298N.c       **** 
   6:L298N.c       **** void L298N_Init(void) {
  28              		.loc 1 6 0
  29              		.cfi_startproc
  30              		@ args = 0, pretend = 0, frame = 0
  31              		@ frame_needed = 0, uses_anonymous_args = 0
  32 0000 08B5     		push	{r3, lr}
  33              		.cfi_def_cfa_offset 8
  34              		.cfi_offset 3, -8
  35              		.cfi_offset 14, -4
   7:L298N.c       ****     PWM1_WriteCompare(0);
  36              		.loc 1 7 0
  37 0002 0020     		movs	r0, #0
  38 0004 FFF7FEFF 		bl	PWM1_WriteCompare
  39              	.LVL0:
   8:L298N.c       ****     PWM2_WriteCompare(0);
  40              		.loc 1 8 0
  41 0008 0020     		movs	r0, #0
  42 000a FFF7FEFF 		bl	PWM2_WriteCompare
  43              	.LVL1:
  44 000e 08BD     		pop	{r3, pc}
  45              		.cfi_endproc
  46              	.LFE63:
  47              		.size	L298N_Init, .-L298N_Init
  48              		.section	.text.L298N_Forward,"ax",%progbits
  49              		.align	2
ARM GAS  C:\Users\nicol\AppData\Local\Temp\ccmr33tk.s 			page 2


  50              		.global	L298N_Forward
  51              		.thumb
  52              		.thumb_func
  53              		.type	L298N_Forward, %function
  54              	L298N_Forward:
  55              	.LFB64:
   9:L298N.c       **** }
  10:L298N.c       **** 
  11:L298N.c       **** void L298N_Forward(uint8_t pwm_value) {
  56              		.loc 1 11 0
  57              		.cfi_startproc
  58              		@ args = 0, pretend = 0, frame = 0
  59              		@ frame_needed = 0, uses_anonymous_args = 0
  60              	.LVL2:
  61 0000 08B5     		push	{r3, lr}
  62              		.cfi_def_cfa_offset 8
  63              		.cfi_offset 3, -8
  64              		.cfi_offset 14, -4
  12:L298N.c       ****     PWM1_WriteCompare(pwm_value);
  65              		.loc 1 12 0
  66 0002 FFF7FEFF 		bl	PWM1_WriteCompare
  67              	.LVL3:
  13:L298N.c       ****     PWM2_WriteCompare(0);
  68              		.loc 1 13 0
  69 0006 0020     		movs	r0, #0
  70 0008 FFF7FEFF 		bl	PWM2_WriteCompare
  71              	.LVL4:
  72 000c 08BD     		pop	{r3, pc}
  73              		.cfi_endproc
  74              	.LFE64:
  75              		.size	L298N_Forward, .-L298N_Forward
  76 000e 00BF     		.section	.text.L298N_Backward,"ax",%progbits
  77              		.align	2
  78              		.global	L298N_Backward
  79              		.thumb
  80              		.thumb_func
  81              		.type	L298N_Backward, %function
  82              	L298N_Backward:
  83              	.LFB65:
  14:L298N.c       **** }
  15:L298N.c       **** 
  16:L298N.c       **** void L298N_Backward(uint8_t pwm_value) {
  84              		.loc 1 16 0
  85              		.cfi_startproc
  86              		@ args = 0, pretend = 0, frame = 0
  87              		@ frame_needed = 0, uses_anonymous_args = 0
  88              	.LVL5:
  89 0000 10B5     		push	{r4, lr}
  90              		.cfi_def_cfa_offset 8
  91              		.cfi_offset 4, -8
  92              		.cfi_offset 14, -4
  93 0002 0446     		mov	r4, r0
  17:L298N.c       ****     PWM1_WriteCompare(0);
  94              		.loc 1 17 0
  95 0004 0020     		movs	r0, #0
  96              	.LVL6:
  97 0006 FFF7FEFF 		bl	PWM1_WriteCompare
ARM GAS  C:\Users\nicol\AppData\Local\Temp\ccmr33tk.s 			page 3


  98              	.LVL7:
  18:L298N.c       ****     PWM2_WriteCompare(pwm_value);
  99              		.loc 1 18 0
 100 000a 2046     		mov	r0, r4
 101 000c FFF7FEFF 		bl	PWM2_WriteCompare
 102              	.LVL8:
 103 0010 10BD     		pop	{r4, pc}
 104              		.cfi_endproc
 105              	.LFE65:
 106              		.size	L298N_Backward, .-L298N_Backward
 107 0012 00BF     		.section	.text.L298N_Stop,"ax",%progbits
 108              		.align	2
 109              		.global	L298N_Stop
 110              		.thumb
 111              		.thumb_func
 112              		.type	L298N_Stop, %function
 113              	L298N_Stop:
 114              	.LFB66:
  19:L298N.c       **** }
  20:L298N.c       **** 
  21:L298N.c       **** void L298N_Stop(void) {
 115              		.loc 1 21 0
 116              		.cfi_startproc
 117              		@ args = 0, pretend = 0, frame = 0
 118              		@ frame_needed = 0, uses_anonymous_args = 0
 119 0000 08B5     		push	{r3, lr}
 120              		.cfi_def_cfa_offset 8
 121              		.cfi_offset 3, -8
 122              		.cfi_offset 14, -4
  22:L298N.c       ****     PWM1_WriteCompare(0);
 123              		.loc 1 22 0
 124 0002 0020     		movs	r0, #0
 125 0004 FFF7FEFF 		bl	PWM1_WriteCompare
 126              	.LVL9:
  23:L298N.c       ****     PWM2_WriteCompare(0);
 127              		.loc 1 23 0
 128 0008 0020     		movs	r0, #0
 129 000a FFF7FEFF 		bl	PWM2_WriteCompare
 130              	.LVL10:
 131 000e 08BD     		pop	{r3, pc}
 132              		.cfi_endproc
 133              	.LFE66:
 134              		.size	L298N_Stop, .-L298N_Stop
 135              		.comm	pwm_value,1,1
 136              		.text
 137              	.Letext0:
 138              		.file 2 "c:\\program files (x86)\\cypress\\psoc creator\\4.4\\psoc creator\\import\\gnu\\arm\\5.4.
 139              		.file 3 "c:\\program files (x86)\\cypress\\psoc creator\\4.4\\psoc creator\\import\\gnu\\arm\\5.4.
 140              		.file 4 "Generated_Source\\PSoC5/core_cm3.h"
 141              		.file 5 "Generated_Source\\PSoC5/PWM1.h"
 142              		.file 6 "Generated_Source\\PSoC5/PWM2.h"