ARM GAS  C:\Users\nicol\AppData\Local\Temp\ccEABd8Q.s 			page 1


   1              		.syntax unified
   2              		.cpu cortex-m3
   3              		.fpu softvfp
   4              		.eabi_attribute 20, 1
   5              		.eabi_attribute 21, 1
   6              		.eabi_attribute 23, 3
   7              		.eabi_attribute 24, 1
   8              		.eabi_attribute 25, 1
   9              		.eabi_attribute 26, 1
  10              		.eabi_attribute 30, 1
  11              		.eabi_attribute 34, 1
  12              		.eabi_attribute 18, 4
  13              		.thumb
  14              		.syntax unified
  15              		.file	"main.c"
  16              		.text
  17              	.Ltext0:
  18              		.cfi_sections	.debug_frame
  19              		.section	.text.init,"ax",%progbits
  20              		.align	2
  21              		.global	init
  22              		.thumb
  23              		.thumb_func
  24              		.type	init, %function
  25              	init:
  26              	.LFB64:
  27              		.file 1 "main.c"
   1:main.c        **** #include "project.h"
   2:main.c        **** #include "stdio.h"
   3:main.c        **** #include "L298N.h"
   4:main.c        **** #include "SSD1306.h"
   5:main.c        **** 
   6:main.c        **** int32_t conversion;
   7:main.c        **** float32 ADCVoltaje;
   8:main.c        **** char mensaje[256];
   9:main.c        **** uint8_t pwm_value;
  10:main.c        **** uint8_t direccion = 0; // 0: derecha, 1: izquierda, 2: stop
  11:main.c        **** uint8_t stop_button_pressed = 0;
  12:main.c        **** 
  13:main.c        **** void init() {
  28              		.loc 1 13 0
  29              		.cfi_startproc
  30              		@ args = 0, pretend = 0, frame = 0
  31              		@ frame_needed = 0, uses_anonymous_args = 0
  32 0000 08B5     		push	{r3, lr}
  33              		.cfi_def_cfa_offset 8
  34              		.cfi_offset 3, -8
  35              		.cfi_offset 14, -4
  14:main.c        ****     CyGlobalIntEnable;
  36              		.loc 1 14 0
  37              		.syntax unified
  38              	@ 14 "main.c" 1
  39 0002 62B6     		CPSIE   i
  40              	@ 0 "" 2
  15:main.c        ****     SSD1306_Init();
  41              		.loc 1 15 0
  42              		.thumb
ARM GAS  C:\Users\nicol\AppData\Local\Temp\ccEABd8Q.s 			page 2


  43              		.syntax unified
  44 0004 FFF7FEFF 		bl	SSD1306_Init
  45              	.LVL0:
  16:main.c        ****     UART_Start();
  46              		.loc 1 16 0
  47 0008 FFF7FEFF 		bl	UART_Start
  48              	.LVL1:
  17:main.c        ****     UART_PutString("Sistema inicializado.\r\n");
  49              		.loc 1 17 0
  50 000c 0948     		ldr	r0, .L3
  51 000e FFF7FEFF 		bl	UART_PutString
  52              	.LVL2:
  18:main.c        ****     UART_PutString("Use el potenciometro para ajustar la velocidad.\r\n");
  53              		.loc 1 18 0
  54 0012 0948     		ldr	r0, .L3+4
  55 0014 FFF7FEFF 		bl	UART_PutString
  56              	.LVL3:
  19:main.c        ****     UART_PutString("Presione el boton para cambiar la direccion/parar.\r\n");
  57              		.loc 1 19 0
  58 0018 0848     		ldr	r0, .L3+8
  59 001a FFF7FEFF 		bl	UART_PutString
  60              	.LVL4:
  20:main.c        ****     ADC_Start();
  61              		.loc 1 20 0
  62 001e FFF7FEFF 		bl	ADC_Start
  63              	.LVL5:
  21:main.c        ****     Opamp_Start();
  64              		.loc 1 21 0
  65 0022 FFF7FEFF 		bl	Opamp_Start
  66              	.LVL6:
  22:main.c        ****     PWM1_Start();
  67              		.loc 1 22 0
  68 0026 FFF7FEFF 		bl	PWM1_Start
  69              	.LVL7:
  23:main.c        ****     PWM2_Start();
  70              		.loc 1 23 0
  71 002a FFF7FEFF 		bl	PWM2_Start
  72              	.LVL8:
  24:main.c        ****     L298N_Init();
  73              		.loc 1 24 0
  74 002e FFF7FEFF 		bl	L298N_Init
  75              	.LVL9:
  76 0032 08BD     		pop	{r3, pc}
  77              	.L4:
  78              		.align	2
  79              	.L3:
  80 0034 00000000 		.word	.LC0
  81 0038 18000000 		.word	.LC1
  82 003c 4C000000 		.word	.LC2
  83              		.cfi_endproc
  84              	.LFE64:
  85              		.size	init, .-init
  86              		.global	__aeabi_i2d
  87              		.global	__aeabi_dmul
  88              		.global	__aeabi_ddiv
  89              		.global	__aeabi_d2f
  90              		.global	__aeabi_f2d
ARM GAS  C:\Users\nicol\AppData\Local\Temp\ccEABd8Q.s 			page 3


  91              		.global	__aeabi_d2uiz
  92              		.section	.text.printData,"ax",%progbits
  93              		.align	2
  94              		.global	printData
  95              		.thumb
  96              		.thumb_func
  97              		.type	printData, %function
  98              	printData:
  99              	.LFB65:
  25:main.c        **** }
  26:main.c        **** 
  27:main.c        **** void printData() {
 100              		.loc 1 27 0
 101              		.cfi_startproc
 102              		@ args = 0, pretend = 0, frame = 24
 103              		@ frame_needed = 0, uses_anonymous_args = 0
 104 0000 2DE97043 		push	{r4, r5, r6, r8, r9, lr}
 105              		.cfi_def_cfa_offset 24
 106              		.cfi_offset 4, -24
 107              		.cfi_offset 5, -20
 108              		.cfi_offset 6, -16
 109              		.cfi_offset 8, -12
 110              		.cfi_offset 9, -8
 111              		.cfi_offset 14, -4
 112 0004 88B0     		sub	sp, sp, #32
 113              		.cfi_def_cfa_offset 56
  28:main.c        ****     // Iniciar conversión ADC
  29:main.c        ****     ADC_StartConvert();
 114              		.loc 1 29 0
 115 0006 FFF7FEFF 		bl	ADC_StartConvert
 116              	.LVL10:
 117              	.L6:
  30:main.c        ****     while (!ADC_IsEndConversion(ADC_WAIT_FOR_RESULT)) {}
 118              		.loc 1 30 0 discriminator 1
 119 000a 0020     		movs	r0, #0
 120 000c FFF7FEFF 		bl	ADC_IsEndConversion
 121              	.LVL11:
 122 0010 0028     		cmp	r0, #0
 123 0012 FAD0     		beq	.L6
  31:main.c        **** 
  32:main.c        ****     // Calcular voltaje (suponiendo ADC de 20 bits y referencia de 5V)
  33:main.c        ****     conversion = ADC_GetResult32();
 124              		.loc 1 33 0
 125 0014 FFF7FEFF 		bl	ADC_GetResult32
 126              	.LVL12:
 127 0018 434B     		ldr	r3, .L11+16
 128 001a 1860     		str	r0, [r3]
  34:main.c        ****     ADCVoltaje = (conversion * 5.0) / 1048575.0;
 129              		.loc 1 34 0
 130 001c FFF7FEFF 		bl	__aeabi_i2d
 131              	.LVL13:
 132 0020 0022     		movs	r2, #0
 133 0022 424B     		ldr	r3, .L11+20
 134 0024 FFF7FEFF 		bl	__aeabi_dmul
 135              	.LVL14:
 136 0028 3BA3     		adr	r3, .L11
 137 002a D3E90023 		ldrd	r2, [r3]
ARM GAS  C:\Users\nicol\AppData\Local\Temp\ccEABd8Q.s 			page 4


 138 002e FFF7FEFF 		bl	__aeabi_ddiv
 139              	.LVL15:
 140 0032 FFF7FEFF 		bl	__aeabi_d2f
 141              	.LVL16:
 142 0036 3E4B     		ldr	r3, .L11+24
 143 0038 1860     		str	r0, [r3]	@ float
  35:main.c        **** 
  36:main.c        ****     // Calcular valor PWM
  37:main.c        ****     pwm_value = (uint8_t)((ADCVoltaje / 5.0) * 255);
 144              		.loc 1 37 0
 145 003a FFF7FEFF 		bl	__aeabi_f2d
 146              	.LVL17:
 147 003e 8046     		mov	r8, r0
 148 0040 8946     		mov	r9, r1
 149 0042 0022     		movs	r2, #0
 150 0044 394B     		ldr	r3, .L11+20
 151 0046 FFF7FEFF 		bl	__aeabi_ddiv
 152              	.LVL18:
 153 004a 35A3     		adr	r3, .L11+8
 154 004c D3E90023 		ldrd	r2, [r3]
 155 0050 FFF7FEFF 		bl	__aeabi_dmul
 156              	.LVL19:
 157 0054 FFF7FEFF 		bl	__aeabi_d2uiz
 158              	.LVL20:
 159 0058 C5B2     		uxtb	r5, r0
 160 005a 364B     		ldr	r3, .L11+28
 161 005c 1D70     		strb	r5, [r3]
  38:main.c        ****     if (pwm_value > 255) pwm_value = 255; // Limitar valor máximo
  39:main.c        ****     uint8_t pwm_percentage = (uint8_t)((pwm_value / 255.0) * 100);
 162              		.loc 1 39 0
 163 005e 2846     		mov	r0, r5
 164 0060 FFF7FEFF 		bl	__aeabi_i2d
 165              	.LVL21:
 166 0064 2EA3     		adr	r3, .L11+8
 167 0066 D3E90023 		ldrd	r2, [r3]
 168 006a FFF7FEFF 		bl	__aeabi_ddiv
 169              	.LVL22:
 170 006e 0022     		movs	r2, #0
 171 0070 314B     		ldr	r3, .L11+32
 172 0072 FFF7FEFF 		bl	__aeabi_dmul
 173              	.LVL23:
 174 0076 FFF7FEFF 		bl	__aeabi_d2uiz
 175              	.LVL24:
 176 007a C6B2     		uxtb	r6, r0
 177              	.LVL25:
  40:main.c        **** 
  41:main.c        ****     // Mostrar datos en consola UART
  42:main.c        ****     sprintf(mensaje, "Voltaje: %.4f V, PWM Value: %d, PWM Percentage: %d%%\r\n", ADCVoltaje, pwm_va
 178              		.loc 1 42 0
 179 007c 2F4C     		ldr	r4, .L11+36
 180 007e 0196     		str	r6, [sp, #4]
 181 0080 0095     		str	r5, [sp]
 182 0082 4246     		mov	r2, r8
 183 0084 4B46     		mov	r3, r9
 184 0086 2E49     		ldr	r1, .L11+40
 185 0088 2046     		mov	r0, r4
 186 008a FFF7FEFF 		bl	sprintf
ARM GAS  C:\Users\nicol\AppData\Local\Temp\ccEABd8Q.s 			page 5


 187              	.LVL26:
  43:main.c        ****     UART_PutString(mensaje);
 188              		.loc 1 43 0
 189 008e 2046     		mov	r0, r4
 190 0090 FFF7FEFF 		bl	UART_PutString
 191              	.LVL27:
  44:main.c        **** 
  45:main.c        ****     // Mostrar PWM en la primera línea del OLED
  46:main.c        ****     sprintf(mensaje, "PWM: %d%%", pwm_percentage);
 192              		.loc 1 46 0
 193 0094 3246     		mov	r2, r6
 194 0096 2B49     		ldr	r1, .L11+44
 195 0098 2046     		mov	r0, r4
 196 009a FFF7FEFF 		bl	sprintf
 197              	.LVL28:
  47:main.c        ****     SSD1306_SetCursor(0, 0);
 198              		.loc 1 47 0
 199 009e 0021     		movs	r1, #0
 200 00a0 0846     		mov	r0, r1
 201 00a2 FFF7FEFF 		bl	SSD1306_SetCursor
 202              	.LVL29:
  48:main.c        ****     SSD1306_WriteString(mensaje);
 203              		.loc 1 48 0
 204 00a6 2046     		mov	r0, r4
 205 00a8 FFF7FEFF 		bl	SSD1306_WriteString
 206              	.LVL30:
  49:main.c        **** 
  50:main.c        ****     // Mostrar Dirección en la segunda línea del OLED
  51:main.c        ****     char dir_str[20];
  52:main.c        ****     if (direccion == 0) {
 207              		.loc 1 52 0
 208 00ac 264B     		ldr	r3, .L11+48
 209 00ae 1B78     		ldrb	r3, [r3]	@ zero_extendqisi2
 210 00b0 2BB9     		cbnz	r3, .L7
  53:main.c        ****         sprintf(dir_str, "Dir: Derecha");
 211              		.loc 1 53 0
 212 00b2 264B     		ldr	r3, .L11+52
 213 00b4 03AC     		add	r4, sp, #12
 214 00b6 0FCB     		ldmia	r3, {r0, r1, r2, r3}
 215 00b8 07C4     		stmia	r4!, {r0, r1, r2}
 216 00ba 2370     		strb	r3, [r4]
 217 00bc 0FE0     		b	.L8
 218              	.L7:
  54:main.c        ****     } else if (direccion == 1) {
 219              		.loc 1 54 0
 220 00be 012B     		cmp	r3, #1
 221 00c0 08D1     		bne	.L9
  55:main.c        ****         sprintf(dir_str, "Dir: Izquierda");
 222              		.loc 1 55 0
 223 00c2 234B     		ldr	r3, .L11+56
 224 00c4 03AC     		add	r4, sp, #12
 225 00c6 0FCB     		ldmia	r3, {r0, r1, r2, r3}
 226 00c8 07C4     		stmia	r4!, {r0, r1, r2}
 227 00ca 24F8023B 		strh	r3, [r4], #2	@ movhi
 228 00ce 1B0C     		lsrs	r3, r3, #16
 229 00d0 2370     		strb	r3, [r4]
 230 00d2 04E0     		b	.L8
ARM GAS  C:\Users\nicol\AppData\Local\Temp\ccEABd8Q.s 			page 6


 231              	.L9:
  56:main.c        ****     } else {
  57:main.c        ****         sprintf(dir_str, "Dir: STOP");
 232              		.loc 1 57 0
 233 00d4 1F4A     		ldr	r2, .L11+60
 234 00d6 03AB     		add	r3, sp, #12
 235 00d8 07CA     		ldmia	r2, {r0, r1, r2}
 236 00da 03C3     		stmia	r3!, {r0, r1}
 237 00dc 1A80     		strh	r2, [r3]	@ movhi
 238              	.L8:
  58:main.c        ****     }
  59:main.c        ****     SSD1306_SetCursor(0, 8);
 239              		.loc 1 59 0
 240 00de 0821     		movs	r1, #8
 241 00e0 0020     		movs	r0, #0
 242 00e2 FFF7FEFF 		bl	SSD1306_SetCursor
 243              	.LVL31:
  60:main.c        ****     SSD1306_WriteString(dir_str);
 244              		.loc 1 60 0
 245 00e6 03A8     		add	r0, sp, #12
 246 00e8 FFF7FEFF 		bl	SSD1306_WriteString
 247              	.LVL32:
  61:main.c        **** 
  62:main.c        ****     // Mostrar Voltaje en la tercera línea del OLED
  63:main.c        ****     sprintf(mensaje, "Voltaje: %.2f V", ADCVoltaje);
 248              		.loc 1 63 0
 249 00ec 104B     		ldr	r3, .L11+24
 250 00ee 1868     		ldr	r0, [r3]	@ float
 251 00f0 FFF7FEFF 		bl	__aeabi_f2d
 252              	.LVL33:
 253 00f4 114C     		ldr	r4, .L11+36
 254 00f6 0246     		mov	r2, r0
 255 00f8 0B46     		mov	r3, r1
 256 00fa 1749     		ldr	r1, .L11+64
 257 00fc 2046     		mov	r0, r4
 258 00fe FFF7FEFF 		bl	sprintf
 259              	.LVL34:
  64:main.c        ****     SSD1306_SetCursor(0, 16);
 260              		.loc 1 64 0
 261 0102 1021     		movs	r1, #16
 262 0104 0020     		movs	r0, #0
 263 0106 FFF7FEFF 		bl	SSD1306_SetCursor
 264              	.LVL35:
  65:main.c        ****     SSD1306_WriteString(mensaje);
 265              		.loc 1 65 0
 266 010a 2046     		mov	r0, r4
 267 010c FFF7FEFF 		bl	SSD1306_WriteString
 268              	.LVL36:
  66:main.c        **** }
 269              		.loc 1 66 0
 270 0110 08B0     		add	sp, sp, #32
 271              		.cfi_def_cfa_offset 24
 272              		@ sp needed
 273 0112 BDE87083 		pop	{r4, r5, r6, r8, r9, pc}
 274              	.LVL37:
 275              	.L12:
 276 0116 00BF     		.align	3
ARM GAS  C:\Users\nicol\AppData\Local\Temp\ccEABd8Q.s 			page 7


 277              	.L11:
 278 0118 00000000 		.word	0
 279 011c FEFF2F41 		.word	1093664766
 280 0120 00000000 		.word	0
 281 0124 00E06F40 		.word	1081073664
 282 0128 00000000 		.word	conversion
 283 012c 00001440 		.word	1075052544
 284 0130 00000000 		.word	ADCVoltaje
 285 0134 00000000 		.word	pwm_value
 286 0138 00005940 		.word	1079574528
 287 013c 00000000 		.word	mensaje
 288 0140 84000000 		.word	.LC3
 289 0144 BC000000 		.word	.LC4
 290 0148 00000000 		.word	.LANCHOR0
 291 014c C8000000 		.word	.LC5
 292 0150 D8000000 		.word	.LC6
 293 0154 E8000000 		.word	.LC7
 294 0158 F4000000 		.word	.LC8
 295              		.cfi_endproc
 296              	.LFE65:
 297              		.size	printData, .-printData
 298              		.section	.text.actualizarPWM,"ax",%progbits
 299              		.align	2
 300              		.global	actualizarPWM
 301              		.thumb
 302              		.thumb_func
 303              		.type	actualizarPWM, %function
 304              	actualizarPWM:
 305              	.LFB66:
  67:main.c        **** 
  68:main.c        **** void actualizarPWM() {
 306              		.loc 1 68 0
 307              		.cfi_startproc
 308              		@ args = 0, pretend = 0, frame = 0
 309              		@ frame_needed = 0, uses_anonymous_args = 0
 310 0000 08B5     		push	{r3, lr}
 311              		.cfi_def_cfa_offset 8
 312              		.cfi_offset 3, -8
 313              		.cfi_offset 14, -4
  69:main.c        ****     // Iniciar conversión ADC
  70:main.c        ****     ADC_StartConvert();
 314              		.loc 1 70 0
 315 0002 FFF7FEFF 		bl	ADC_StartConvert
 316              	.LVL38:
 317              	.L14:
  71:main.c        ****     while (!ADC_IsEndConversion(ADC_WAIT_FOR_RESULT)) {}
 318              		.loc 1 71 0 discriminator 1
 319 0006 0020     		movs	r0, #0
 320 0008 FFF7FEFF 		bl	ADC_IsEndConversion
 321              	.LVL39:
 322 000c 0028     		cmp	r0, #0
 323 000e FAD0     		beq	.L14
  72:main.c        **** 
  73:main.c        ****     // Calcular voltaje (suponiendo ADC de 20 bits y referencia de 5V)
  74:main.c        ****     conversion = ADC_GetResult32();
 324              		.loc 1 74 0
 325 0010 FFF7FEFF 		bl	ADC_GetResult32
ARM GAS  C:\Users\nicol\AppData\Local\Temp\ccEABd8Q.s 			page 8


 326              	.LVL40:
 327 0014 144B     		ldr	r3, .L16+16
 328 0016 1860     		str	r0, [r3]
  75:main.c        ****     ADCVoltaje = (conversion * 5.0) / 1048575.0;
 329              		.loc 1 75 0
 330 0018 FFF7FEFF 		bl	__aeabi_i2d
 331              	.LVL41:
 332 001c 0022     		movs	r2, #0
 333 001e 134B     		ldr	r3, .L16+20
 334 0020 FFF7FEFF 		bl	__aeabi_dmul
 335              	.LVL42:
 336 0024 0CA3     		adr	r3, .L16
 337 0026 D3E90023 		ldrd	r2, [r3]
 338 002a FFF7FEFF 		bl	__aeabi_ddiv
 339              	.LVL43:
 340 002e FFF7FEFF 		bl	__aeabi_d2f
 341              	.LVL44:
 342 0032 0F4B     		ldr	r3, .L16+24
 343 0034 1860     		str	r0, [r3]	@ float
  76:main.c        **** 
  77:main.c        ****     // Calcular valor PWM
  78:main.c        ****     pwm_value = (uint8_t)((ADCVoltaje / 5.0) * 255);
 344              		.loc 1 78 0
 345 0036 FFF7FEFF 		bl	__aeabi_f2d
 346              	.LVL45:
 347 003a 0022     		movs	r2, #0
 348 003c 0B4B     		ldr	r3, .L16+20
 349 003e FFF7FEFF 		bl	__aeabi_ddiv
 350              	.LVL46:
 351 0042 07A3     		adr	r3, .L16+8
 352 0044 D3E90023 		ldrd	r2, [r3]
 353 0048 FFF7FEFF 		bl	__aeabi_dmul
 354              	.LVL47:
 355 004c FFF7FEFF 		bl	__aeabi_d2uiz
 356              	.LVL48:
 357 0050 084B     		ldr	r3, .L16+28
 358 0052 1870     		strb	r0, [r3]
 359 0054 08BD     		pop	{r3, pc}
 360              	.L17:
 361 0056 00BF     		.align	3
 362              	.L16:
 363 0058 00000000 		.word	0
 364 005c FEFF2F41 		.word	1093664766
 365 0060 00000000 		.word	0
 366 0064 00E06F40 		.word	1081073664
 367 0068 00000000 		.word	conversion
 368 006c 00001440 		.word	1075052544
 369 0070 00000000 		.word	ADCVoltaje
 370 0074 00000000 		.word	pwm_value
 371              		.cfi_endproc
 372              	.LFE66:
 373              		.size	actualizarPWM, .-actualizarPWM
 374              		.section	.text.controlDireccion,"ax",%progbits
 375              		.align	2
 376              		.global	controlDireccion
 377              		.thumb
 378              		.thumb_func
ARM GAS  C:\Users\nicol\AppData\Local\Temp\ccEABd8Q.s 			page 9


 379              		.type	controlDireccion, %function
 380              	controlDireccion:
 381              	.LFB67:
  79:main.c        ****     if (pwm_value > 255) pwm_value = 255; // Limitar valor máximo
  80:main.c        **** }
  81:main.c        **** 
  82:main.c        **** void controlDireccion() {
 382              		.loc 1 82 0
 383              		.cfi_startproc
 384              		@ args = 0, pretend = 0, frame = 32
 385              		@ frame_needed = 0, uses_anonymous_args = 0
 386 0000 30B5     		push	{r4, r5, lr}
 387              		.cfi_def_cfa_offset 12
 388              		.cfi_offset 4, -12
 389              		.cfi_offset 5, -8
 390              		.cfi_offset 14, -4
 391 0002 89B0     		sub	sp, sp, #36
 392              		.cfi_def_cfa_offset 48
  83:main.c        ****     if (DIRECCION_Read() == 0) { // Leer estado del botón
 393              		.loc 1 83 0
 394 0004 FFF7FEFF 		bl	DIRECCION_Read
 395              	.LVL49:
 396 0008 0028     		cmp	r0, #0
 397 000a 41D1     		bne	.L19
  84:main.c        ****         CyDelay(50); // Anti-rebote
 398              		.loc 1 84 0
 399 000c 3220     		movs	r0, #50
 400 000e FFF7FEFF 		bl	CyDelay
 401              	.LVL50:
  85:main.c        ****         if (DIRECCION_Read() == 0) {
 402              		.loc 1 85 0
 403 0012 FFF7FEFF 		bl	DIRECCION_Read
 404              	.LVL51:
 405 0016 0028     		cmp	r0, #0
 406 0018 34D1     		bne	.L27
 407              	.LBB2:
  86:main.c        ****             // Cambiar dirección/parar
  87:main.c        ****             if (direccion == 0) {
 408              		.loc 1 87 0
 409 001a 274B     		ldr	r3, .L32
 410 001c 1B78     		ldrb	r3, [r3]	@ zero_extendqisi2
 411 001e 1BB9     		cbnz	r3, .L21
  88:main.c        ****                 direccion = 1; // Izquierda
 412              		.loc 1 88 0
 413 0020 0122     		movs	r2, #1
 414 0022 254B     		ldr	r3, .L32
 415 0024 1A70     		strb	r2, [r3]
 416 0026 08E0     		b	.L22
 417              	.L21:
  89:main.c        ****             } else if (direccion == 1) {
 418              		.loc 1 89 0
 419 0028 012B     		cmp	r3, #1
 420 002a 03D1     		bne	.L23
  90:main.c        ****                 direccion = 2; // STOP
 421              		.loc 1 90 0
 422 002c 0222     		movs	r2, #2
 423 002e 224B     		ldr	r3, .L32
ARM GAS  C:\Users\nicol\AppData\Local\Temp\ccEABd8Q.s 			page 10


 424 0030 1A70     		strb	r2, [r3]
 425 0032 02E0     		b	.L22
 426              	.L23:
  91:main.c        ****             } else {
  92:main.c        ****                 direccion = 0; // Derecha
 427              		.loc 1 92 0
 428 0034 0022     		movs	r2, #0
 429 0036 204B     		ldr	r3, .L32
 430 0038 1A70     		strb	r2, [r3]
 431              	.L22:
  93:main.c        ****             }
  94:main.c        **** 
  95:main.c        ****             // Imprimir dirección en UART
  96:main.c        ****             char dir_str[30];
  97:main.c        ****             if (direccion == 0) {
 432              		.loc 1 97 0
 433 003a 1F4B     		ldr	r3, .L32
 434 003c 1B78     		ldrb	r3, [r3]	@ zero_extendqisi2
 435 003e 4BB9     		cbnz	r3, .L24
  98:main.c        ****                 sprintf(dir_str, "Direccion: Derecha\r\n");
 436              		.loc 1 98 0
 437 0040 6C46     		mov	r4, sp
 438 0042 1E4D     		ldr	r5, .L32+4
 439 0044 0FCD     		ldmia	r5!, {r0, r1, r2, r3}
 440 0046 0FC4     		stmia	r4!, {r0, r1, r2, r3}
 441 0048 95E80300 		ldmia	r5, {r0, r1}
 442 004c 44F8040B 		str	r0, [r4], #4
 443 0050 2170     		strb	r1, [r4]
 444 0052 14E0     		b	.L25
 445              	.L24:
  99:main.c        ****             } else if (direccion == 1) {
 446              		.loc 1 99 0
 447 0054 012B     		cmp	r3, #1
 448 0056 0CD1     		bne	.L26
 100:main.c        ****                 sprintf(dir_str, "Direccion: Izquierda\r\n");
 449              		.loc 1 100 0
 450 0058 6C46     		mov	r4, sp
 451 005a 194D     		ldr	r5, .L32+8
 452 005c 0FCD     		ldmia	r5!, {r0, r1, r2, r3}
 453 005e 0FC4     		stmia	r4!, {r0, r1, r2, r3}
 454 0060 95E80300 		ldmia	r5, {r0, r1}
 455 0064 44F8040B 		str	r0, [r4], #4
 456 0068 24F8021B 		strh	r1, [r4], #2	@ movhi
 457 006c 090C     		lsrs	r1, r1, #16
 458 006e 2170     		strb	r1, [r4]
 459 0070 05E0     		b	.L25
 460              	.L26:
 101:main.c        ****             } else {
 102:main.c        ****                 sprintf(dir_str, "Direccion: STOP\r\n");
 461              		.loc 1 102 0
 462 0072 6C46     		mov	r4, sp
 463 0074 134D     		ldr	r5, .L32+12
 464 0076 0FCD     		ldmia	r5!, {r0, r1, r2, r3}
 465 0078 0FC4     		stmia	r4!, {r0, r1, r2, r3}
 466 007a 2B68     		ldr	r3, [r5]
 467 007c 2380     		strh	r3, [r4]	@ movhi
 468              	.L25:
ARM GAS  C:\Users\nicol\AppData\Local\Temp\ccEABd8Q.s 			page 11


 103:main.c        ****             }
 104:main.c        ****             UART_PutString(dir_str);
 469              		.loc 1 104 0
 470 007e 6846     		mov	r0, sp
 471 0080 FFF7FEFF 		bl	UART_PutString
 472              	.LVL52:
 473              	.L27:
 474              	.LBE2:
 105:main.c        ****         }
 106:main.c        ****         while (DIRECCION_Read() == 0); // Esperar que se suelte el botón
 475              		.loc 1 106 0 discriminator 1
 476 0084 FFF7FEFF 		bl	DIRECCION_Read
 477              	.LVL53:
 478 0088 0028     		cmp	r0, #0
 479 008a FBD0     		beq	.L27
 107:main.c        ****         SSD1306_Clear();
 480              		.loc 1 107 0
 481 008c FFF7FEFF 		bl	SSD1306_Clear
 482              	.LVL54:
 483              	.L19:
 108:main.c        ****     }
 109:main.c        **** 
 110:main.c        ****     // Controlar el motor según la dirección
 111:main.c        ****     if (direccion == 0) {
 484              		.loc 1 111 0
 485 0090 094B     		ldr	r3, .L32
 486 0092 1B78     		ldrb	r3, [r3]	@ zero_extendqisi2
 487 0094 23B9     		cbnz	r3, .L28
 112:main.c        ****         L298N_Forward(pwm_value);
 488              		.loc 1 112 0
 489 0096 0C4B     		ldr	r3, .L32+16
 490 0098 1878     		ldrb	r0, [r3]	@ zero_extendqisi2
 491 009a FFF7FEFF 		bl	L298N_Forward
 492              	.LVL55:
 493 009e 08E0     		b	.L18
 494              	.L28:
 113:main.c        ****     } else if (direccion == 1) {
 495              		.loc 1 113 0
 496 00a0 012B     		cmp	r3, #1
 497 00a2 04D1     		bne	.L30
 114:main.c        ****         L298N_Backward(pwm_value);
 498              		.loc 1 114 0
 499 00a4 084B     		ldr	r3, .L32+16
 500 00a6 1878     		ldrb	r0, [r3]	@ zero_extendqisi2
 501 00a8 FFF7FEFF 		bl	L298N_Backward
 502              	.LVL56:
 503 00ac 01E0     		b	.L18
 504              	.L30:
 115:main.c        ****     } else {
 116:main.c        ****         L298N_Stop();
 505              		.loc 1 116 0
 506 00ae FFF7FEFF 		bl	L298N_Stop
 507              	.LVL57:
 508              	.L18:
 117:main.c        ****     }
 118:main.c        **** }
 509              		.loc 1 118 0
ARM GAS  C:\Users\nicol\AppData\Local\Temp\ccEABd8Q.s 			page 12


 510 00b2 09B0     		add	sp, sp, #36
 511              		.cfi_def_cfa_offset 12
 512              		@ sp needed
 513 00b4 30BD     		pop	{r4, r5, pc}
 514              	.L33:
 515 00b6 00BF     		.align	2
 516              	.L32:
 517 00b8 00000000 		.word	.LANCHOR0
 518 00bc 04010000 		.word	.LC9
 519 00c0 1C010000 		.word	.LC10
 520 00c4 34010000 		.word	.LC11
 521 00c8 00000000 		.word	pwm_value
 522              		.cfi_endproc
 523              	.LFE67:
 524              		.size	controlDireccion, .-controlDireccion
 525              		.section	.text.main,"ax",%progbits
 526              		.align	2
 527              		.global	main
 528              		.thumb
 529              		.thumb_func
 530              		.type	main, %function
 531              	main:
 532              	.LFB68:
 119:main.c        **** 
 120:main.c        **** 
 121:main.c        **** int main(void) {
 533              		.loc 1 121 0
 534              		.cfi_startproc
 535              		@ Volatile: function does not return.
 536              		@ args = 0, pretend = 0, frame = 0
 537              		@ frame_needed = 0, uses_anonymous_args = 0
 538 0000 08B5     		push	{r3, lr}
 539              		.cfi_def_cfa_offset 8
 540              		.cfi_offset 3, -8
 541              		.cfi_offset 14, -4
 122:main.c        ****     init();
 542              		.loc 1 122 0
 543 0002 FFF7FEFF 		bl	init
 544              	.LVL58:
 123:main.c        ****     SSD1306_Clear();
 545              		.loc 1 123 0
 546 0006 FFF7FEFF 		bl	SSD1306_Clear
 547              	.LVL59:
 548              	.L35:
 124:main.c        **** 
 125:main.c        ****     for (;;) {
 126:main.c        ****         actualizarPWM();  // Actualizar el valor de pwm_value
 549              		.loc 1 126 0 discriminator 1
 550 000a FFF7FEFF 		bl	actualizarPWM
 551              	.LVL60:
 127:main.c        ****         printData();      // Actualizar datos del PWM, voltaje y dirección
 552              		.loc 1 127 0 discriminator 1
 553 000e FFF7FEFF 		bl	printData
 554              	.LVL61:
 128:main.c        ****         controlDireccion(); // Controlar dirección del motor
 555              		.loc 1 128 0 discriminator 1
 556 0012 FFF7FEFF 		bl	controlDireccion
ARM GAS  C:\Users\nicol\AppData\Local\Temp\ccEABd8Q.s 			page 13


 557              	.LVL62:
 129:main.c        **** 
 130:main.c        ****         CyDelay(10);      // Pausa para evitar actualizaciones demasiado rápidas
 558              		.loc 1 130 0 discriminator 1
 559 0016 0A20     		movs	r0, #10
 560 0018 FFF7FEFF 		bl	CyDelay
 561              	.LVL63:
 562 001c F5E7     		b	.L35
 563              		.cfi_endproc
 564              	.LFE68:
 565              		.size	main, .-main
 566              		.global	stop_button_pressed
 567              		.global	direccion
 568              		.comm	pwm_value,1,1
 569              		.comm	mensaje,256,4
 570              		.comm	ADCVoltaje,4,4
 571              		.comm	conversion,4,4
 572 001e 00BF     		.section	.rodata.str1.4,"aMS",%progbits,1
 573              		.align	2
 574              	.LC0:
 575 0000 53697374 		.ascii	"Sistema inicializado.\015\012\000"
 575      656D6120 
 575      696E6963 
 575      69616C69 
 575      7A61646F 
 576              	.LC1:
 577 0018 55736520 		.ascii	"Use el potenciometro para ajustar la velocidad.\015"
 577      656C2070 
 577      6F74656E 
 577      63696F6D 
 577      6574726F 
 578 0048 0A00     		.ascii	"\012\000"
 579 004a 0000     		.space	2
 580              	.LC2:
 581 004c 50726573 		.ascii	"Presione el boton para cambiar la direccion/parar.\015"
 581      696F6E65 
 581      20656C20 
 581      626F746F 
 581      6E207061 
 582 007f 0A00     		.ascii	"\012\000"
 583 0081 000000   		.space	3
 584              	.LC3:
 585 0084 566F6C74 		.ascii	"Voltaje: %.4f V, PWM Value: %d, PWM Percentage: %d%"
 585      616A653A 
 585      20252E34 
 585      6620562C 
 585      2050574D 
 586 00b7 250D0A00 		.ascii	"%\015\012\000"
 587 00bb 00       		.space	1
 588              	.LC4:
 589 00bc 50574D3A 		.ascii	"PWM: %d%%\000"
 589      20256425 
 589      2500
 590 00c6 0000     		.space	2
 591              	.LC5:
 592 00c8 4469723A 		.ascii	"Dir: Derecha\000"
 592      20446572 
ARM GAS  C:\Users\nicol\AppData\Local\Temp\ccEABd8Q.s 			page 14


 592      65636861 
 592      00
 593 00d5 000000   		.space	3
 594              	.LC6:
 595 00d8 4469723A 		.ascii	"Dir: Izquierda\000"
 595      20497A71 
 595      75696572 
 595      646100
 596 00e7 00       		.space	1
 597              	.LC7:
 598 00e8 4469723A 		.ascii	"Dir: STOP\000"
 598      2053544F 
 598      5000
 599 00f2 0000     		.space	2
 600              	.LC8:
 601 00f4 566F6C74 		.ascii	"Voltaje: %.2f V\000"
 601      616A653A 
 601      20252E32 
 601      66205600 
 602              	.LC9:
 603 0104 44697265 		.ascii	"Direccion: Derecha\015\012\000"
 603      6363696F 
 603      6E3A2044 
 603      65726563 
 603      68610D0A 
 604 0119 000000   		.space	3
 605              	.LC10:
 606 011c 44697265 		.ascii	"Direccion: Izquierda\015\012\000"
 606      6363696F 
 606      6E3A2049 
 606      7A717569 
 606      65726461 
 607 0133 00       		.space	1
 608              	.LC11:
 609 0134 44697265 		.ascii	"Direccion: STOP\015\012\000"
 609      6363696F 
 609      6E3A2053 
 609      544F500D 
 609      0A00
 610              		.bss
 611              		.set	.LANCHOR0,. + 0
 612              		.type	direccion, %object
 613              		.size	direccion, 1
 614              	direccion:
 615 0000 00       		.space	1
 616              		.type	stop_button_pressed, %object
 617              		.size	stop_button_pressed, 1
 618              	stop_button_pressed:
 619 0001 00       		.space	1
 620              		.text
 621              	.Letext0:
 622              		.file 2 "c:\\program files (x86)\\cypress\\psoc creator\\4.4\\psoc creator\\import\\gnu\\arm\\5.4.
 623              		.file 3 "c:\\program files (x86)\\cypress\\psoc creator\\4.4\\psoc creator\\import\\gnu\\arm\\5.4.
 624              		.file 4 "Generated_Source\\PSoC5/cytypes.h"
 625              		.file 5 "Generated_Source\\PSoC5/core_cm3.h"
 626              		.file 6 "SSD1306.h"
 627              		.file 7 "Generated_Source\\PSoC5/UART.h"
ARM GAS  C:\Users\nicol\AppData\Local\Temp\ccEABd8Q.s 			page 15


 628              		.file 8 "Generated_Source\\PSoC5/ADC.h"
 629              		.file 9 "Generated_Source\\PSoC5/Opamp.h"
 630              		.file 10 "Generated_Source\\PSoC5/PWM1.h"
 631              		.file 11 "Generated_Source\\PSoC5/PWM2.h"
 632              		.file 12 "L298N.h"
 633              		.file 13 "c:\\program files (x86)\\cypress\\psoc creator\\4.4\\psoc creator\\import\\gnu\\arm\\5.4
 634              		.file 14 "Generated_Source\\PSoC5/DIRECCION.h"
 635              		.file 15 "Generated_Source\\PSoC5/CyLib.h"