ARM GAS  C:\Users\nicol\AppData\Local\Temp\cc4Phgkv.s 			page 1


   1              		.syntax unified
   2              		.cpu cortex-m3
   3              		.fpu softvfp
   4              		.eabi_attribute 20, 1
   5              		.eabi_attribute 21, 1
   6              		.eabi_attribute 23, 3
   7              		.eabi_attribute 24, 1
   8              		.eabi_attribute 25, 1
   9              		.eabi_attribute 26, 1
  10              		.eabi_attribute 30, 1
  11              		.eabi_attribute 34, 1
  12              		.eabi_attribute 18, 4
  13              		.thumb
  14              		.syntax unified
  15              		.file	"SSD1306.c"
  16              		.text
  17              	.Ltext0:
  18              		.cfi_sections	.debug_frame
  19              		.section	.text.SSD1306_Init,"ax",%progbits
  20              		.align	2
  21              		.global	SSD1306_Init
  22              		.thumb
  23              		.thumb_func
  24              		.type	SSD1306_Init, %function
  25              	SSD1306_Init:
  26              	.LFB64:
  27              		.file 1 "SSD1306.c"
   1:SSD1306.c     **** #include "SSD1306.h"
   2:SSD1306.c     **** #include "project.h"
   3:SSD1306.c     **** #include "font8x8.h"
   4:SSD1306.c     **** #include <stdio.h>
   5:SSD1306.c     **** 
   6:SSD1306.c     **** #define DISPLAY_ADDRESS 0x3C
   7:SSD1306.c     **** #define SSD1306_WIDTH 128
   8:SSD1306.c     **** #define SSD1306_HEIGHT 64
   9:SSD1306.c     **** 
  10:SSD1306.c     **** // Initialization commands for the OLED screen
  11:SSD1306.c     **** static const uint8_t init_commands[] = {
  12:SSD1306.c     ****     0xAE, // Turn off the display
  13:SSD1306.c     ****     0xD5, 0x80, // Clock configuration
  14:SSD1306.c     ****     0xA8, 0x3F, // Multiplexing
  15:SSD1306.c     ****     0xD3, 0x00, // Display offset
  16:SSD1306.c     ****     0x40, // Start line
  17:SSD1306.c     ****     0x8D, 0x14, // Enable charge pump
  18:SSD1306.c     ****     0x20, 0x00, // Horizontal addressing mode
  19:SSD1306.c     ****     0xA1, // Segment remap
  20:SSD1306.c     ****     0xC8, // COM output remap
  21:SSD1306.c     ****     0xDA, 0x12, // COM configuration
  22:SSD1306.c     ****     0x81, 0xCF, // Contrast control
  23:SSD1306.c     ****     0xD9, 0xF1, // Pre-charge period
  24:SSD1306.c     ****     0xDB, 0x40, // VCOMH deselect level
  25:SSD1306.c     ****     0xA4, // Output all pixels off
  26:SSD1306.c     ****     0xA6, // Normal display
  27:SSD1306.c     ****     0xAF  // Turn on the display
  28:SSD1306.c     **** };
  29:SSD1306.c     **** 
  30:SSD1306.c     **** // Global variables to store cursor position
ARM GAS  C:\Users\nicol\AppData\Local\Temp\cc4Phgkv.s 			page 2


  31:SSD1306.c     **** uint8_t cursor_x = 0;
  32:SSD1306.c     **** uint8_t cursor_y = 0;
  33:SSD1306.c     **** 
  34:SSD1306.c     **** void SSD1306_Init(void) {
  28              		.loc 1 34 0
  29              		.cfi_startproc
  30              		@ args = 0, pretend = 0, frame = 0
  31              		@ frame_needed = 0, uses_anonymous_args = 0
  32 0000 10B5     		push	{r4, lr}
  33              		.cfi_def_cfa_offset 8
  34              		.cfi_offset 4, -8
  35              		.cfi_offset 14, -4
  35:SSD1306.c     ****     I2C_Start(); // Initialize the I2C component
  36              		.loc 1 35 0
  37 0002 FFF7FEFF 		bl	I2C_Start
  38              	.LVL0:
  39              	.LBB2:
  36:SSD1306.c     **** 
  37:SSD1306.c     ****     for (uint8_t i = 0; i < sizeof(init_commands); i++) {
  40              		.loc 1 37 0
  41 0006 0024     		movs	r4, #0
  42 0008 0EE0     		b	.L2
  43              	.LVL1:
  44              	.L3:
  38:SSD1306.c     ****         I2C_MasterSendStart(DISPLAY_ADDRESS, I2C_WRITE_XFER_MODE);
  45              		.loc 1 38 0 discriminator 3
  46 000a 0021     		movs	r1, #0
  47 000c 3C20     		movs	r0, #60
  48 000e FFF7FEFF 		bl	I2C_MasterSendStart
  49              	.LVL2:
  39:SSD1306.c     ****         I2C_MasterWriteByte(0x00); // Command byte
  50              		.loc 1 39 0 discriminator 3
  51 0012 0020     		movs	r0, #0
  52 0014 FFF7FEFF 		bl	I2C_MasterWriteByte
  53              	.LVL3:
  40:SSD1306.c     ****         I2C_MasterWriteByte(init_commands[i]); // Send the command
  54              		.loc 1 40 0 discriminator 3
  55 0018 054B     		ldr	r3, .L5
  56 001a 185D     		ldrb	r0, [r3, r4]	@ zero_extendqisi2
  57 001c FFF7FEFF 		bl	I2C_MasterWriteByte
  58              	.LVL4:
  41:SSD1306.c     ****         I2C_MasterSendStop();
  59              		.loc 1 41 0 discriminator 3
  60 0020 FFF7FEFF 		bl	I2C_MasterSendStop
  61              	.LVL5:
  37:SSD1306.c     ****         I2C_MasterSendStart(DISPLAY_ADDRESS, I2C_WRITE_XFER_MODE);
  62              		.loc 1 37 0 discriminator 3
  63 0024 0134     		adds	r4, r4, #1
  64              	.LVL6:
  65 0026 E4B2     		uxtb	r4, r4
  66              	.LVL7:
  67              	.L2:
  37:SSD1306.c     ****         I2C_MasterSendStart(DISPLAY_ADDRESS, I2C_WRITE_XFER_MODE);
  68              		.loc 1 37 0 is_stmt 0 discriminator 1
  69 0028 182C     		cmp	r4, #24
  70 002a EED9     		bls	.L3
  71              	.LBE2:
ARM GAS  C:\Users\nicol\AppData\Local\Temp\cc4Phgkv.s 			page 3


  42:SSD1306.c     ****     }
  43:SSD1306.c     **** }
  72              		.loc 1 43 0 is_stmt 1
  73 002c 10BD     		pop	{r4, pc}
  74              	.LVL8:
  75              	.L6:
  76 002e 00BF     		.align	2
  77              	.L5:
  78 0030 00000000 		.word	.LANCHOR0
  79              		.cfi_endproc
  80              	.LFE64:
  81              		.size	SSD1306_Init, .-SSD1306_Init
  82              		.section	.text.SSD1306_WriteChar,"ax",%progbits
  83              		.align	2
  84              		.global	SSD1306_WriteChar
  85              		.thumb
  86              		.thumb_func
  87              		.type	SSD1306_WriteChar, %function
  88              	SSD1306_WriteChar:
  89              	.LFB66:
  44:SSD1306.c     **** 
  45:SSD1306.c     **** void SSD1306_Clear(void) {
  46:SSD1306.c     ****     for (uint8_t page = 0; page < 8; page++) {
  47:SSD1306.c     ****         SSD1306_SetCursor(0, page * 8);
  48:SSD1306.c     ****         for (uint8_t col = 0; col < SSD1306_WIDTH; col++) {
  49:SSD1306.c     ****             I2C_MasterSendStart(DISPLAY_ADDRESS, I2C_WRITE_XFER_MODE);
  50:SSD1306.c     ****             I2C_MasterWriteByte(0x40); // Data byte
  51:SSD1306.c     ****             I2C_MasterWriteByte(0x00); // Clear pixel
  52:SSD1306.c     ****             I2C_MasterSendStop();
  53:SSD1306.c     ****         }
  54:SSD1306.c     ****     }
  55:SSD1306.c     **** 	cursor_x = 0;
  56:SSD1306.c     ****     cursor_y = 0;
  57:SSD1306.c     **** }
  58:SSD1306.c     **** 
  59:SSD1306.c     **** void SSD1306_WriteChar(char c) {
  90              		.loc 1 59 0
  91              		.cfi_startproc
  92              		@ args = 0, pretend = 0, frame = 0
  93              		@ frame_needed = 0, uses_anonymous_args = 0
  94              	.LVL9:
  95 0000 38B5     		push	{r3, r4, r5, lr}
  96              		.cfi_def_cfa_offset 16
  97              		.cfi_offset 3, -16
  98              		.cfi_offset 4, -12
  99              		.cfi_offset 5, -8
 100              		.cfi_offset 14, -4
  60:SSD1306.c     ****     if (c >= ' ' && c <= '~') { // Printable ASCII range
 101              		.loc 1 60 0
 102 0002 2038     		subs	r0, r0, #32
 103              	.LVL10:
 104 0004 C5B2     		uxtb	r5, r0
 105 0006 5E2D     		cmp	r5, #94
 106 0008 14D9     		bls	.L11
 107 000a 38BD     		pop	{r3, r4, r5, pc}
 108              	.LVL11:
 109              	.L10:
ARM GAS  C:\Users\nicol\AppData\Local\Temp\cc4Phgkv.s 			page 4


 110              	.LBB3:
 111              	.LBB4:
  61:SSD1306.c     ****         uint8_t font_index = c - ' ';
  62:SSD1306.c     ****         
  63:SSD1306.c     ****         // Write character data
  64:SSD1306.c     ****         for (uint8_t i = 0; i < FONT_WIDTH; i++) {
  65:SSD1306.c     ****             I2C_MasterSendStart(DISPLAY_ADDRESS, I2C_WRITE_XFER_MODE);
 112              		.loc 1 65 0 discriminator 3
 113 000c 0021     		movs	r1, #0
 114 000e 3C20     		movs	r0, #60
 115 0010 FFF7FEFF 		bl	I2C_MasterSendStart
 116              	.LVL12:
  66:SSD1306.c     ****             I2C_MasterWriteByte(0x40); // Data byte
 117              		.loc 1 66 0 discriminator 3
 118 0014 4020     		movs	r0, #64
 119 0016 FFF7FEFF 		bl	I2C_MasterWriteByte
 120              	.LVL13:
  67:SSD1306.c     ****             I2C_MasterWriteByte(font6x8[font_index * FONT_WIDTH + i]); // Font data
 121              		.loc 1 67 0 discriminator 3
 122 001a 05EB4502 		add	r2, r5, r5, lsl #1
 123 001e 5300     		lsls	r3, r2, #1
 124 0020 2344     		add	r3, r3, r4
 125 0022 0E4A     		ldr	r2, .L13
 126 0024 D05C     		ldrb	r0, [r2, r3]	@ zero_extendqisi2
 127 0026 FFF7FEFF 		bl	I2C_MasterWriteByte
 128              	.LVL14:
  68:SSD1306.c     ****             I2C_MasterSendStop();
 129              		.loc 1 68 0 discriminator 3
 130 002a FFF7FEFF 		bl	I2C_MasterSendStop
 131              	.LVL15:
  64:SSD1306.c     ****             I2C_MasterSendStart(DISPLAY_ADDRESS, I2C_WRITE_XFER_MODE);
 132              		.loc 1 64 0 discriminator 3
 133 002e 0134     		adds	r4, r4, #1
 134              	.LVL16:
 135 0030 E4B2     		uxtb	r4, r4
 136              	.LVL17:
 137 0032 00E0     		b	.L8
 138              	.LVL18:
 139              	.L11:
 140              	.LBE4:
 141              	.LBE3:
 142 0034 0024     		movs	r4, #0
 143              	.L8:
 144              	.LVL19:
 145              	.LBB6:
 146              	.LBB5:
  64:SSD1306.c     ****             I2C_MasterSendStart(DISPLAY_ADDRESS, I2C_WRITE_XFER_MODE);
 147              		.loc 1 64 0 is_stmt 0 discriminator 1
 148 0036 052C     		cmp	r4, #5
 149 0038 E8D9     		bls	.L10
 150              	.LBE5:
  69:SSD1306.c     ****         }
  70:SSD1306.c     **** 
  71:SSD1306.c     ****         // Add a space after the character
  72:SSD1306.c     ****         I2C_MasterSendStart(DISPLAY_ADDRESS, I2C_WRITE_XFER_MODE);
 151              		.loc 1 72 0 is_stmt 1
 152 003a 0021     		movs	r1, #0
ARM GAS  C:\Users\nicol\AppData\Local\Temp\cc4Phgkv.s 			page 5


 153 003c 3C20     		movs	r0, #60
 154 003e FFF7FEFF 		bl	I2C_MasterSendStart
 155              	.LVL20:
  73:SSD1306.c     ****         I2C_MasterWriteByte(0x40);
 156              		.loc 1 73 0
 157 0042 4020     		movs	r0, #64
 158 0044 FFF7FEFF 		bl	I2C_MasterWriteByte
 159              	.LVL21:
  74:SSD1306.c     ****         I2C_MasterWriteByte(0x00); // Space column
 160              		.loc 1 74 0
 161 0048 0020     		movs	r0, #0
 162 004a FFF7FEFF 		bl	I2C_MasterWriteByte
 163              	.LVL22:
  75:SSD1306.c     ****         I2C_MasterSendStop();
 164              		.loc 1 75 0
 165 004e FFF7FEFF 		bl	I2C_MasterSendStop
 166              	.LVL23:
  76:SSD1306.c     **** 
  77:SSD1306.c     ****         cursor_x += FONT_WIDTH + 1; // Move cursor
 167              		.loc 1 77 0
 168 0052 034A     		ldr	r2, .L13+4
 169 0054 1378     		ldrb	r3, [r2]	@ zero_extendqisi2
 170 0056 0733     		adds	r3, r3, #7
 171 0058 1370     		strb	r3, [r2]
 172 005a 38BD     		pop	{r3, r4, r5, pc}
 173              	.LVL24:
 174              	.L14:
 175              		.align	2
 176              	.L13:
 177 005c 00000000 		.word	font6x8
 178 0060 00000000 		.word	.LANCHOR1
 179              	.LBE6:
 180              		.cfi_endproc
 181              	.LFE66:
 182              		.size	SSD1306_WriteChar, .-SSD1306_WriteChar
 183              		.section	.text.SSD1306_WriteString,"ax",%progbits
 184              		.align	2
 185              		.global	SSD1306_WriteString
 186              		.thumb
 187              		.thumb_func
 188              		.type	SSD1306_WriteString, %function
 189              	SSD1306_WriteString:
 190              	.LFB67:
  78:SSD1306.c     ****     }
  79:SSD1306.c     **** }
  80:SSD1306.c     **** 
  81:SSD1306.c     **** void SSD1306_WriteString(const char *str) {
 191              		.loc 1 81 0
 192              		.cfi_startproc
 193              		@ args = 0, pretend = 0, frame = 0
 194              		@ frame_needed = 0, uses_anonymous_args = 0
 195              	.LVL25:
 196 0000 10B5     		push	{r4, lr}
 197              		.cfi_def_cfa_offset 8
 198              		.cfi_offset 4, -8
 199              		.cfi_offset 14, -4
 200 0002 0446     		mov	r4, r0
ARM GAS  C:\Users\nicol\AppData\Local\Temp\cc4Phgkv.s 			page 6


  82:SSD1306.c     ****     while (*str) {
 201              		.loc 1 82 0
 202 0004 02E0     		b	.L16
 203              	.LVL26:
 204              	.L17:
  83:SSD1306.c     ****         SSD1306_WriteChar(*str++);
 205              		.loc 1 83 0
 206 0006 0134     		adds	r4, r4, #1
 207              	.LVL27:
 208 0008 FFF7FEFF 		bl	SSD1306_WriteChar
 209              	.LVL28:
 210              	.L16:
  82:SSD1306.c     ****     while (*str) {
 211              		.loc 1 82 0
 212 000c 2078     		ldrb	r0, [r4]	@ zero_extendqisi2
 213 000e 0028     		cmp	r0, #0
 214 0010 F9D1     		bne	.L17
  84:SSD1306.c     ****     }
  85:SSD1306.c     **** }
 215              		.loc 1 85 0
 216 0012 10BD     		pop	{r4, pc}
 217              		.cfi_endproc
 218              	.LFE67:
 219              		.size	SSD1306_WriteString, .-SSD1306_WriteString
 220              		.section	.text.SSD1306_SetCursor,"ax",%progbits
 221              		.align	2
 222              		.global	SSD1306_SetCursor
 223              		.thumb
 224              		.thumb_func
 225              		.type	SSD1306_SetCursor, %function
 226              	SSD1306_SetCursor:
 227              	.LFB68:
  86:SSD1306.c     **** 
  87:SSD1306.c     **** void SSD1306_SetCursor(uint8_t x, uint8_t y) {
 228              		.loc 1 87 0
 229              		.cfi_startproc
 230              		@ args = 0, pretend = 0, frame = 0
 231              		@ frame_needed = 0, uses_anonymous_args = 0
 232              	.LVL29:
 233 0000 38B5     		push	{r3, r4, r5, lr}
 234              		.cfi_def_cfa_offset 16
 235              		.cfi_offset 3, -16
 236              		.cfi_offset 4, -12
 237              		.cfi_offset 5, -8
 238              		.cfi_offset 14, -4
  88:SSD1306.c     ****     uint8_t command1, command2;
  89:SSD1306.c     ****     command1 = 0xb0 + (y / 8);
 239              		.loc 1 89 0
 240 0002 C908     		lsrs	r1, r1, #3
 241              	.LVL30:
 242 0004 A1F15004 		sub	r4, r1, #80
 243 0008 E4B2     		uxtb	r4, r4
 244              	.LVL31:
  90:SSD1306.c     ****     command2 = ((x & 0x0f));
 245              		.loc 1 90 0
 246 000a 00F00F05 		and	r5, r0, #15
 247              	.LVL32:
ARM GAS  C:\Users\nicol\AppData\Local\Temp\cc4Phgkv.s 			page 7


  91:SSD1306.c     ****     I2C_MasterSendStart(DISPLAY_ADDRESS, I2C_WRITE_XFER_MODE);
 248              		.loc 1 91 0
 249 000e 0021     		movs	r1, #0
 250 0010 3C20     		movs	r0, #60
 251              	.LVL33:
 252 0012 FFF7FEFF 		bl	I2C_MasterSendStart
 253              	.LVL34:
  92:SSD1306.c     ****     I2C_MasterWriteByte(0x00); // Command byte
 254              		.loc 1 92 0
 255 0016 0020     		movs	r0, #0
 256 0018 FFF7FEFF 		bl	I2C_MasterWriteByte
 257              	.LVL35:
  93:SSD1306.c     ****     I2C_MasterWriteByte(command1);
 258              		.loc 1 93 0
 259 001c 2046     		mov	r0, r4
 260 001e FFF7FEFF 		bl	I2C_MasterWriteByte
 261              	.LVL36:
  94:SSD1306.c     **** 	I2C_MasterSendStop();
 262              		.loc 1 94 0
 263 0022 FFF7FEFF 		bl	I2C_MasterSendStop
 264              	.LVL37:
  95:SSD1306.c     **** 	
  96:SSD1306.c     **** 	I2C_MasterSendStart(DISPLAY_ADDRESS, I2C_WRITE_XFER_MODE);
 265              		.loc 1 96 0
 266 0026 0021     		movs	r1, #0
 267 0028 3C20     		movs	r0, #60
 268 002a FFF7FEFF 		bl	I2C_MasterSendStart
 269              	.LVL38:
  97:SSD1306.c     ****     I2C_MasterWriteByte(0x00); // Command byte
 270              		.loc 1 97 0
 271 002e 0020     		movs	r0, #0
 272 0030 FFF7FEFF 		bl	I2C_MasterWriteByte
 273              	.LVL39:
  98:SSD1306.c     ****     I2C_MasterWriteByte(0x00 + command2);
 274              		.loc 1 98 0
 275 0034 2846     		mov	r0, r5
 276 0036 FFF7FEFF 		bl	I2C_MasterWriteByte
 277              	.LVL40:
  99:SSD1306.c     ****     I2C_MasterSendStop();
 278              		.loc 1 99 0
 279 003a FFF7FEFF 		bl	I2C_MasterSendStop
 280              	.LVL41:
 100:SSD1306.c     **** 	
 101:SSD1306.c     **** 	I2C_MasterSendStart(DISPLAY_ADDRESS, I2C_WRITE_XFER_MODE);
 281              		.loc 1 101 0
 282 003e 0021     		movs	r1, #0
 283 0040 3C20     		movs	r0, #60
 284 0042 FFF7FEFF 		bl	I2C_MasterSendStart
 285              	.LVL42:
 102:SSD1306.c     ****     I2C_MasterWriteByte(0x00); // Command byte
 286              		.loc 1 102 0
 287 0046 0020     		movs	r0, #0
 288 0048 FFF7FEFF 		bl	I2C_MasterWriteByte
 289              	.LVL43:
 103:SSD1306.c     ****     I2C_MasterWriteByte(0x10);
 290              		.loc 1 103 0
 291 004c 1020     		movs	r0, #16
ARM GAS  C:\Users\nicol\AppData\Local\Temp\cc4Phgkv.s 			page 8


 292 004e FFF7FEFF 		bl	I2C_MasterWriteByte
 293              	.LVL44:
 104:SSD1306.c     ****     I2C_MasterSendStop();	
 294              		.loc 1 104 0
 295 0052 FFF7FEFF 		bl	I2C_MasterSendStop
 296              	.LVL45:
 297 0056 38BD     		pop	{r3, r4, r5, pc}
 298              		.cfi_endproc
 299              	.LFE68:
 300              		.size	SSD1306_SetCursor, .-SSD1306_SetCursor
 301              		.section	.text.SSD1306_Clear,"ax",%progbits
 302              		.align	2
 303              		.global	SSD1306_Clear
 304              		.thumb
 305              		.thumb_func
 306              		.type	SSD1306_Clear, %function
 307              	SSD1306_Clear:
 308              	.LFB65:
  45:SSD1306.c     ****     for (uint8_t page = 0; page < 8; page++) {
 309              		.loc 1 45 0
 310              		.cfi_startproc
 311              		@ args = 0, pretend = 0, frame = 0
 312              		@ frame_needed = 0, uses_anonymous_args = 0
 313 0000 38B5     		push	{r3, r4, r5, lr}
 314              		.cfi_def_cfa_offset 16
 315              		.cfi_offset 3, -16
 316              		.cfi_offset 4, -12
 317              		.cfi_offset 5, -8
 318              		.cfi_offset 14, -4
 319              	.LVL46:
 320              	.LBB7:
  46:SSD1306.c     ****         SSD1306_SetCursor(0, page * 8);
 321              		.loc 1 46 0
 322 0002 0025     		movs	r5, #0
 323 0004 1AE0     		b	.L22
 324              	.LVL47:
 325              	.L25:
  47:SSD1306.c     ****         for (uint8_t col = 0; col < SSD1306_WIDTH; col++) {
 326              		.loc 1 47 0
 327 0006 E900     		lsls	r1, r5, #3
 328 0008 01F0F801 		and	r1, r1, #248
 329 000c 0020     		movs	r0, #0
 330 000e FFF7FEFF 		bl	SSD1306_SetCursor
 331              	.LVL48:
 332              	.LBB8:
  48:SSD1306.c     ****             I2C_MasterSendStart(DISPLAY_ADDRESS, I2C_WRITE_XFER_MODE);
 333              		.loc 1 48 0
 334 0012 0024     		movs	r4, #0
 335 0014 0DE0     		b	.L23
 336              	.LVL49:
 337              	.L24:
  49:SSD1306.c     ****             I2C_MasterWriteByte(0x40); // Data byte
 338              		.loc 1 49 0 discriminator 3
 339 0016 0021     		movs	r1, #0
 340 0018 3C20     		movs	r0, #60
 341 001a FFF7FEFF 		bl	I2C_MasterSendStart
 342              	.LVL50:
ARM GAS  C:\Users\nicol\AppData\Local\Temp\cc4Phgkv.s 			page 9


  50:SSD1306.c     ****             I2C_MasterWriteByte(0x00); // Clear pixel
 343              		.loc 1 50 0 discriminator 3
 344 001e 4020     		movs	r0, #64
 345 0020 FFF7FEFF 		bl	I2C_MasterWriteByte
 346              	.LVL51:
  51:SSD1306.c     ****             I2C_MasterSendStop();
 347              		.loc 1 51 0 discriminator 3
 348 0024 0020     		movs	r0, #0
 349 0026 FFF7FEFF 		bl	I2C_MasterWriteByte
 350              	.LVL52:
  52:SSD1306.c     ****         }
 351              		.loc 1 52 0 discriminator 3
 352 002a FFF7FEFF 		bl	I2C_MasterSendStop
 353              	.LVL53:
  48:SSD1306.c     ****             I2C_MasterSendStart(DISPLAY_ADDRESS, I2C_WRITE_XFER_MODE);
 354              		.loc 1 48 0 discriminator 3
 355 002e 0134     		adds	r4, r4, #1
 356              	.LVL54:
 357 0030 E4B2     		uxtb	r4, r4
 358              	.LVL55:
 359              	.L23:
  48:SSD1306.c     ****             I2C_MasterSendStart(DISPLAY_ADDRESS, I2C_WRITE_XFER_MODE);
 360              		.loc 1 48 0 is_stmt 0 discriminator 1
 361 0032 14F0800F 		tst	r4, #128
 362 0036 EED0     		beq	.L24
 363              	.LBE8:
  46:SSD1306.c     ****         SSD1306_SetCursor(0, page * 8);
 364              		.loc 1 46 0 is_stmt 1 discriminator 2
 365 0038 0135     		adds	r5, r5, #1
 366              	.LVL56:
 367 003a EDB2     		uxtb	r5, r5
 368              	.LVL57:
 369              	.L22:
  46:SSD1306.c     ****         SSD1306_SetCursor(0, page * 8);
 370              		.loc 1 46 0 is_stmt 0 discriminator 1
 371 003c 072D     		cmp	r5, #7
 372 003e E2D9     		bls	.L25
 373              	.LBE7:
  55:SSD1306.c     ****     cursor_y = 0;
 374              		.loc 1 55 0 is_stmt 1
 375 0040 024B     		ldr	r3, .L27
 376 0042 0022     		movs	r2, #0
 377 0044 1A70     		strb	r2, [r3]
  56:SSD1306.c     **** }
 378              		.loc 1 56 0
 379 0046 5A70     		strb	r2, [r3, #1]
 380 0048 38BD     		pop	{r3, r4, r5, pc}
 381              	.LVL58:
 382              	.L28:
 383 004a 00BF     		.align	2
 384              	.L27:
 385 004c 00000000 		.word	.LANCHOR1
 386              		.cfi_endproc
 387              	.LFE65:
 388              		.size	SSD1306_Clear, .-SSD1306_Clear
 389              		.global	cursor_y
 390              		.global	cursor_x
ARM GAS  C:\Users\nicol\AppData\Local\Temp\cc4Phgkv.s 			page 10


 391              		.section	.rodata
 392              		.align	2
 393              		.set	.LANCHOR0,. + 0
 394              		.type	init_commands, %object
 395              		.size	init_commands, 25
 396              	init_commands:
 397 0000 AE       		.byte	-82
 398 0001 D5       		.byte	-43
 399 0002 80       		.byte	-128
 400 0003 A8       		.byte	-88
 401 0004 3F       		.byte	63
 402 0005 D3       		.byte	-45
 403 0006 00       		.byte	0
 404 0007 40       		.byte	64
 405 0008 8D       		.byte	-115
 406 0009 14       		.byte	20
 407 000a 20       		.byte	32
 408 000b 00       		.byte	0
 409 000c A1       		.byte	-95
 410 000d C8       		.byte	-56
 411 000e DA       		.byte	-38
 412 000f 12       		.byte	18
 413 0010 81       		.byte	-127
 414 0011 CF       		.byte	-49
 415 0012 D9       		.byte	-39
 416 0013 F1       		.byte	-15
 417 0014 DB       		.byte	-37
 418 0015 40       		.byte	64
 419 0016 A4       		.byte	-92
 420 0017 A6       		.byte	-90
 421 0018 AF       		.byte	-81
 422              		.bss
 423              		.set	.LANCHOR1,. + 0
 424              		.type	cursor_x, %object
 425              		.size	cursor_x, 1
 426              	cursor_x:
 427 0000 00       		.space	1
 428              		.type	cursor_y, %object
 429              		.size	cursor_y, 1
 430              	cursor_y:
 431 0001 00       		.space	1
 432              		.text
 433              	.Letext0:
 434              		.file 2 "c:\\program files (x86)\\cypress\\psoc creator\\4.4\\psoc creator\\import\\gnu\\arm\\5.4.
 435              		.file 3 "c:\\program files (x86)\\cypress\\psoc creator\\4.4\\psoc creator\\import\\gnu\\arm\\5.4.
 436              		.file 4 "Generated_Source\\PSoC5/core_cm3.h"
 437              		.file 5 "font8x8.h"
 438              		.file 6 "Generated_Source\\PSoC5/I2C.h"