ARM GAS  C:\Users\nicol\AppData\Local\Temp\ccgkBH9Q.s 			page 1


   1              		.syntax unified
   2              		.cpu cortex-m3
   3              		.fpu softvfp
   4              		.eabi_attribute 20, 1
   5              		.eabi_attribute 21, 1
   6              		.eabi_attribute 23, 3
   7              		.eabi_attribute 24, 1
   8              		.eabi_attribute 25, 1
   9              		.eabi_attribute 26, 1
  10              		.eabi_attribute 30, 1
  11              		.eabi_attribute 34, 1
  12              		.eabi_attribute 18, 4
  13              		.thumb
  14              		.syntax unified
  15              		.file	"uart_utils.c"
  16              		.text
  17              	.Ltext0:
  18              		.cfi_sections	.debug_frame
  19              		.section	.text.UART_GetString,"ax",%progbits
  20              		.align	2
  21              		.global	UART_GetString
  22              		.thumb
  23              		.thumb_func
  24              		.type	UART_GetString, %function
  25              	UART_GetString:
  26              	.LFB63:
  27              		.file 1 "uart_utils.c"
   1:uart_utils.c  **** #include "uart_utils.h"
   2:uart_utils.c  **** #include "project.h"
   3:uart_utils.c  **** 
   4:uart_utils.c  **** void UART_GetString(char *buffer, uint8_t maxLength) {
  28              		.loc 1 4 0
  29              		.cfi_startproc
  30              		@ args = 0, pretend = 0, frame = 0
  31              		@ frame_needed = 0, uses_anonymous_args = 0
  32              	.LVL0:
  33 0000 70B5     		push	{r4, r5, r6, lr}
  34              		.cfi_def_cfa_offset 16
  35              		.cfi_offset 4, -16
  36              		.cfi_offset 5, -12
  37              		.cfi_offset 6, -8
  38              		.cfi_offset 14, -4
  39 0002 0646     		mov	r6, r0
  40 0004 0D46     		mov	r5, r1
  41              	.LVL1:
   5:uart_utils.c  ****     uint8_t i = 0;
  42              		.loc 1 5 0
  43 0006 0024     		movs	r4, #0
   6:uart_utils.c  ****     char c;
   7:uart_utils.c  **** 
   8:uart_utils.c  ****     while (i < maxLength - 1) {
  44              		.loc 1 8 0
  45 0008 09E0     		b	.L4
  46              	.LVL2:
  47              	.L5:
   9:uart_utils.c  ****         c = UART_GetChar(); // Lee un carácter desde UART
  48              		.loc 1 9 0
ARM GAS  C:\Users\nicol\AppData\Local\Temp\ccgkBH9Q.s 			page 2


  49 000a FFF7FEFF 		bl	UART_GetChar
  50              	.LVL3:
  10:uart_utils.c  ****         if (c == '\r' || c == '\n') {
  51              		.loc 1 10 0
  52 000e 0D28     		cmp	r0, #13
  53 0010 08D0     		beq	.L3
  54              		.loc 1 10 0 is_stmt 0 discriminator 1
  55 0012 0A28     		cmp	r0, #10
  56 0014 06D0     		beq	.L3
  11:uart_utils.c  ****             break; // Termina si se recibe Enter
  12:uart_utils.c  ****         }
  13:uart_utils.c  ****         if (c != 0) { // Ignora caracteres nulos
  57              		.loc 1 13 0 is_stmt 1
  58 0016 10B1     		cbz	r0, .L4
  14:uart_utils.c  ****             buffer[i++] = c;
  59              		.loc 1 14 0
  60 0018 631C     		adds	r3, r4, #1
  61              	.LVL4:
  62 001a 3055     		strb	r0, [r6, r4]
  63 001c DCB2     		uxtb	r4, r3
  64              	.LVL5:
  65              	.L4:
   8:uart_utils.c  ****         c = UART_GetChar(); // Lee un carácter desde UART
  66              		.loc 1 8 0
  67 001e 6B1E     		subs	r3, r5, #1
  68 0020 9C42     		cmp	r4, r3
  69 0022 F2DB     		blt	.L5
  70              	.L3:
  15:uart_utils.c  ****         }
  16:uart_utils.c  ****     }
  17:uart_utils.c  ****     buffer[i] = '\0'; // Añade el terminador de cadena
  71              		.loc 1 17 0
  72 0024 0023     		movs	r3, #0
  73 0026 3355     		strb	r3, [r6, r4]
  74 0028 70BD     		pop	{r4, r5, r6, pc}
  75              		.cfi_endproc
  76              	.LFE63:
  77              		.size	UART_GetString, .-UART_GetString
  78 002a 00BF     		.text
  79              	.Letext0:
  80              		.file 2 "c:\\program files (x86)\\cypress\\psoc creator\\4.4\\psoc creator\\import\\gnu\\arm\\5.4.
  81              		.file 3 "c:\\program files (x86)\\cypress\\psoc creator\\4.4\\psoc creator\\import\\gnu\\arm\\5.4.
  82              		.file 4 "Generated_Source\\PSoC5/core_cm3.h"
  83              		.file 5 "Generated_Source\\PSoC5/UART.h"